; Function Attrs: nounwind uwtable
define ptr @ECPGget_PGconn(ptr noundef captures(address_is_null) %0) local_unnamed_addr #0 {
  %2 = tail call ptr @ecpg_get_connection(ptr noundef %0)
  %3 = icmp eq ptr %2, null
  br i1 %3, label %7, label %4

4:                                                ; preds = %1
  %5 = getelementptr inbounds nuw i8, ptr %2, i64 8
  %6 = load ptr, ptr %5, align 8
  br label %7

7:                                                ; preds = %1, %4
  %.0 = phi ptr [ %6, %4 ], [ null, %1 ]
  ret ptr %.0
}